; Function Attrs: mustprogress nounwind uwtable
define void @_ZN9grpc_core8internal23ServerRetryThrottleDataD2Ev(ptr noundef nonnull readonly align 8 captures(none) dereferenceable(48) %0) unnamed_addr #2 align 2 personality ptr @__gxx_personality_v0 {
  %2 = getelementptr inbounds nuw i8, ptr %0, i64 40
  %3 = load atomic i64, ptr %2 acquire, align 8
  %.0.i.i = inttoptr i64 %3 to ptr
  %.not = icmp eq i64 %3, 0
  br i1 %.not, label %_ZNK9grpc_core10RefCountedINS_8internal23ServerRetryThrottleDataENS_19PolymorphicRefCountENS_11UnrefDeleteEE5UnrefEv.exit, label %4

4:                                                ; preds = %1
  %5 = getelementptr inbounds nuw i8, ptr %.0.i.i, i64 8
  %6 = atomicrmw sub ptr %5, i64 1 acq_rel, align 8
  %7 = icmp eq i64 %6, 1
  br i1 %7, label %8, label %_ZNK9grpc_core10RefCountedINS_8internal23ServerRetryThrottleDataENS_19PolymorphicRefCountENS_11UnrefDeleteEE5UnrefEv.exit, !prof !25

8:                                                ; preds = %4
  tail call void @_ZN9grpc_core8internal23ServerRetryThrottleDataD1Ev(ptr noundef nonnull align 8 dereferenceable(48) %.0.i.i) #19
  tail call void @_ZdlPvm(ptr noundef nonnull align 8 dereferenceable(16) %.0.i.i, i64 noundef 48) #20
  br label %_ZNK9grpc_core10RefCountedINS_8internal23ServerRetryThrottleDataENS_19PolymorphicRefCountENS_11UnrefDeleteEE5UnrefEv.exit

_ZNK9grpc_core10RefCountedINS_8internal23ServerRetryThrottleDataENS_19PolymorphicRefCountENS_11UnrefDeleteEE5UnrefEv.exit: ; preds = %8, %4, %1
  ret void
}